; Function Attrs: nounwind uwtable
define ptr @l_Lake_FacetConfig_toKind_x3f___rarg(ptr noundef %0, ptr noundef %1) local_unnamed_addr #0 {
  %3 = getelementptr inbounds nuw i8, ptr %1, i64 8
  %4 = load ptr, ptr %3, align 8, !tbaa !4
  %5 = ptrtoint ptr %4 to i64
  %6 = and i64 %5, 1
  %.not = icmp eq i64 %6, 0
  br i1 %.not, label %7, label %lean_inc.exit

7:                                                ; preds = %2
  %.val.i = load i32, ptr %4, align 4, !tbaa !8
  %8 = icmp sgt i32 %.val.i, 0
  br i1 %8, label %9, label %11, !prof !13

9:                                                ; preds = %7
  %10 = add nuw i32 %.val.i, 1
  store i32 %10, ptr %4, align 4, !tbaa !8
  br label %14

11:                                               ; preds = %7
  %.not.i14 = icmp eq i32 %.val.i, 0
  br i1 %.not.i14, label %14, label %12

12:                                               ; preds = %11
  tail call void @lean_inc_ref_cold(ptr noundef nonnull %4) #5
  br label %14

lean_inc.exit:                                    ; preds = %2
  %13 = tail call zeroext i8 @lean_name_eq(ptr noundef %4, ptr noundef %0) #5
  br label %lean_dec.exit11

14:                                               ; preds = %12, %11, %9
  %15 = tail call zeroext i8 @lean_name_eq(ptr noundef nonnull %4, ptr noundef %0) #5
  %16 = load i32, ptr %4, align 4, !tbaa !8
  %17 = icmp sgt i32 %16, 1
  br i1 %17, label %18, label %20, !prof !13

18:                                               ; preds = %14
  %19 = add nsw i32 %16, -1
  store i32 %19, ptr %4, align 4, !tbaa !8
  br label %lean_dec.exit11

20:                                               ; preds = %14
  %.not.i = icmp eq i32 %16, 0
  br i1 %.not.i, label %lean_dec.exit11, label %21

21:                                               ; preds = %20
  tail call void @lean_dec_ref_cold(ptr noundef nonnull %4) #5
  br label %lean_dec.exit11

lean_dec.exit11:                                  ; preds = %21, %20, %18, %lean_inc.exit
  %22 = phi i8 [ %13, %lean_inc.exit ], [ %15, %18 ], [ %15, %20 ], [ %15, %21 ]
  %23 = icmp eq i8 %22, 0
  br i1 %23, label %24, label %34

24:                                               ; preds = %lean_dec.exit11
  %25 = ptrtoint ptr %1 to i64
  %26 = and i64 %25, 1
  %.not15 = icmp eq i64 %26, 0
  br i1 %.not15, label %27, label %lean_dec.exit

27:                                               ; preds = %24
  %28 = load i32, ptr %1, align 4, !tbaa !8
  %29 = icmp sgt i32 %28, 1
  br i1 %29, label %30, label %32, !prof !13

30:                                               ; preds = %27
  %31 = add nsw i32 %28, -1
  store i32 %31, ptr %1, align 4, !tbaa !8
  br label %lean_dec.exit

32:                                               ; preds = %27
  %.not.i12 = icmp eq i32 %28, 0
  br i1 %.not.i12, label %lean_dec.exit, label %33

33:                                               ; preds = %32
  tail call void @lean_dec_ref_cold(ptr noundef nonnull %1) #5
  br label %lean_dec.exit

34:                                               ; preds = %lean_dec.exit11
  tail call void @lean_inc_heartbeat() #5
  %35 = tail call noalias ptr @mi_malloc_small(i64 noundef 16) #5
  %36 = icmp eq ptr %35, null
  br i1 %36, label %37, label %lean_alloc_ctor.exit

37:                                               ; preds = %34
  tail call void @lean_internal_panic_out_of_memory() #6
  unreachable

lean_alloc_ctor.exit:                             ; preds = %34
  %38 = getelementptr inbounds nuw i8, ptr %35, i64 4
  store i32 1, ptr %35, align 4, !tbaa !8
  store i32 16842768, ptr %38, align 4
  %39 = getelementptr inbounds nuw i8, ptr %35, i64 8
  store ptr %1, ptr %39, align 8, !tbaa !4
  br label %lean_dec.exit

lean_dec.exit:                                    ; preds = %24, %30, %32, %33, %lean_alloc_ctor.exit
  %.0 = phi ptr [ %35, %lean_alloc_ctor.exit ], [ inttoptr (i64 1 to ptr), %33 ], [ inttoptr (i64 1 to ptr), %32 ], [ inttoptr (i64 1 to ptr), %30 ], [ inttoptr (i64 1 to ptr), %24 ]
  ret ptr %.0
}